target datalayout = "e-m:e-p270:32:32-p271:32:32-p272:64:64-i64:64-i128:128-f80:128-n8:16:32:64-S128"
target triple = "x86_64-pc-linux-gnu"

; Function Attrs: alwaysinline nounwind willreturn memory(none) uwtable
define internal zeroext i16 @av_bswap16(i16 noundef zeroext %0) #7 {
  %2 = alloca i16, align 2
  store i16 %0, ptr %2, align 2, !tbaa !137
  %3 = load i16, ptr %2, align 2, !tbaa !137
  %4 = zext i16 %3 to i32
  %5 = ashr i32 %4, 8
  %6 = load i16, ptr %2, align 2, !tbaa !137
  %7 = zext i16 %6 to i32
  %8 = shl i32 %7, 8
  %9 = or i32 %5, %8
  %10 = trunc i32 %9 to i16
  store i16 %10, ptr %2, align 2, !tbaa !137
  %11 = load i16, ptr %2, align 2, !tbaa !137
  ret i16 %11
}

; Function Attrs: inlinehint nounwind uwtable
define internal i64 @ff_parse_pes_pts(ptr noundef %0) #8 {
  %2 = alloca ptr, align 8
  store ptr %0, ptr %2, align 8, !tbaa !99
  %3 = load ptr, ptr %2, align 8, !tbaa !99
  %4 = load i8, ptr %3, align 1, !tbaa !15
  %5 = zext i8 %4 to i32
  %6 = and i32 %5, 14
  %7 = sext i32 %6 to i64
  %8 = shl i64 %7, 29
  %9 = load ptr, ptr %2, align 8, !tbaa !99
  %10 = getelementptr inbounds i8, ptr %9, i64 1
  %11 = load i16, ptr %10, align 1, !tbaa !15
  %12 = call zeroext i16 @av_bswap16(i16 noundef zeroext %11) #14
  %13 = zext i16 %12 to i32
  %14 = ashr i32 %13, 1
  %15 = shl i32 %14, 15
  %16 = sext i32 %15 to i64
  %17 = or i64 %8, %16
  %18 = load ptr, ptr %2, align 8, !tbaa !99
  %19 = getelementptr inbounds i8, ptr %18, i64 3
  %20 = load i16, ptr %19, align 1, !tbaa !15
  %21 = call zeroext i16 @av_bswap16(i16 noundef zeroext %20) #14
  %22 = zext i16 %21 to i32
  %23 = ashr i32 %22, 1
  %24 = sext i32 %23 to i64
  %25 = or i64 %17, %24
  ret i64 %25
}

; Function Attrs: nounwind uwtable
define internal i64 @get_pts(ptr noundef %0, i32 noundef %1) #0 {
  %3 = alloca i64, align 8
  %4 = alloca ptr, align 8
  %5 = alloca i32, align 4
  %6 = alloca [5 x i8], align 1
  %7 = alloca i32, align 4
  %8 = alloca i32, align 4
  store ptr %0, ptr %4, align 8, !tbaa !117
  store i32 %1, ptr %5, align 4, !tbaa !9
  call void @llvm.lifetime.start.p0(i64 5, ptr %6) #12
  call void @llvm.lifetime.start.p0(i64 4, ptr %7) #12
  %9 = load i32, ptr %5, align 4, !tbaa !9
  %10 = icmp slt i32 %9, 0
  br i1 %10, label %11, label %14

11:                                               ; preds = %2
  %12 = load ptr, ptr %4, align 8, !tbaa !117
  %13 = call i32 @avio_r8(ptr noundef %12)
  br label %16

14:                                               ; preds = %2
  %15 = load i32, ptr %5, align 4, !tbaa !9
  br label %16

16:                                               ; preds = %14, %11
  %17 = phi i32 [ %13, %11 ], [ %15, %14 ]
  %18 = trunc i32 %17 to i8
  %19 = getelementptr inbounds [5 x i8], ptr %6, i64 0, i64 0
  store i8 %18, ptr %19, align 1, !tbaa !15
  %20 = load ptr, ptr %4, align 8, !tbaa !117
  %21 = getelementptr inbounds [5 x i8], ptr %6, i64 0, i64 0
  %22 = getelementptr inbounds i8, ptr %21, i64 1
  %23 = call i32 @avio_read(ptr noundef %20, ptr noundef %22, i32 noundef 4)
  store i32 %23, ptr %7, align 4, !tbaa !9
  %24 = load i32, ptr %7, align 4, !tbaa !9
  %25 = icmp slt i32 %24, 4
  br i1 %25, label %26, label %27

26:                                               ; preds = %16
  store i64 -9223372036854775808, ptr %3, align 8
  store i32 1, ptr %8, align 4
  br label %30

27:                                               ; preds = %16
  %28 = getelementptr inbounds [5 x i8], ptr %6, i64 0, i64 0
  %29 = call i64 @ff_parse_pes_pts(ptr noundef %28)
  store i64 %29, ptr %3, align 8
  store i32 1, ptr %8, align 4
  br label %30

30:                                               ; preds = %27, %26
  call void @llvm.lifetime.end.p0(i64 4, ptr %7) #12
  call void @llvm.lifetime.end.p0(i64 5, ptr %6) #12
  %31 = load i64, ptr %3, align 8
  ret i64 %31
}