; Function Attrs: nounwind uwtable
define internal fastcc range(i64 0, -9223372036854775807) i64 @get_pts(ptr noundef %0, i32 noundef %1) unnamed_addr #1 {
  %3 = alloca [5 x i8], align 1
  call void @llvm.lifetime.start.p0(i64 5, ptr nonnull %3) #13
  %4 = icmp slt i32 %1, 0
  br i1 %4, label %5, label %7

5:                                                ; preds = %2
  %6 = tail call i32 @avio_r8(ptr noundef %0) #13
  br label %7

7:                                                ; preds = %2, %5
  %8 = phi i32 [ %6, %5 ], [ %1, %2 ]
  %9 = trunc i32 %8 to i8
  store i8 %9, ptr %3, align 1, !tbaa !12
  %10 = getelementptr inbounds nuw i8, ptr %3, i64 1
  %11 = call i32 @avio_read(ptr noundef %0, ptr noundef nonnull %10, i32 noundef 4) #13
  %12 = icmp slt i32 %11, 4
  br i1 %12, label %30, label %13

13:                                               ; preds = %7
  %14 = load i8, ptr %3, align 1, !tbaa !12
  %15 = and i8 %14, 14
  %16 = zext nneg i8 %15 to i64
  %17 = shl nuw nsw i64 %16, 29
  %18 = load i16, ptr %10, align 1, !tbaa !12
  %19 = call i16 @llvm.bswap.i16(i16 %18)
  %20 = lshr i16 %19, 1
  %21 = zext nneg i16 %20 to i64
  %22 = shl nuw nsw i64 %21, 15
  %23 = or disjoint i64 %22, %17
  %24 = getelementptr inbounds nuw i8, ptr %3, i64 3
  %25 = load i16, ptr %24, align 1, !tbaa !12
  %26 = call i16 @llvm.bswap.i16(i16 %25)
  %27 = lshr i16 %26, 1
  %28 = zext nneg i16 %27 to i64
  %29 = or disjoint i64 %23, %28
  br label %30

30:                                               ; preds = %7, %13
  %.0 = phi i64 [ %29, %13 ], [ -9223372036854775808, %7 ]
  call void @llvm.lifetime.end.p0(i64 5, ptr nonnull %3) #13
  ret i64 %.0
}